target datalayout = "e-m:e-p270:32:32-p271:32:32-p272:64:64-i64:64-i128:128-f80:128-n8:16:32:64-S128"
target triple = "x86_64-pc-linux-gnu"

%struct.termios = type { i32, i32, i32, i32, i8, [32 x i8], i32, i32 }
%struct.sigaction = type { %union.anon, %struct.__sigset_t, i32, ptr }
%union.anon = type { ptr }
%struct.__sigset_t = type { [16 x i64] }

@term_fd = internal global i32 -1, align 4
@old_term = internal global %struct.termios zeroinitializer, align 4
@.str = private unnamed_addr constant [9 x i8] c"/dev/tty\00", align 1
@term_fd_needs_closing = internal global i32 0, align 4
@.str.1 = private unnamed_addr constant [59 x i8] c"cannot resume in the background, please use 'fg' to resume\00", align 1
@background_resume_msg = internal global ptr null, align 8
@.str.2 = private unnamed_addr constant [33 x i8] c"cannot restore terminal settings\00", align 1
@restore_error_msg = internal global ptr null, align 8
@.str.7 = private unnamed_addr constant [1 x i8] zeroinitializer, align 1
@git_gettext_enabled = external global i32, align 4

; Function Attrs: inlinehint nounwind uwtable
define internal ptr @_(ptr noundef %0) #4 {
  %2 = alloca ptr, align 8
  %3 = alloca ptr, align 8
  store ptr %0, ptr %3, align 8, !tbaa !8
  %4 = load ptr, ptr %3, align 8, !tbaa !8
  %5 = load i8, ptr %4, align 1, !tbaa !11
  %6 = icmp ne i8 %5, 0
  br i1 %6, label %8, label %7

7:                                                ; preds = %1
  store ptr @.str.7, ptr %2, align 8
  br label %16

8:                                                ; preds = %1
  %9 = load i32, ptr @git_gettext_enabled, align 4, !tbaa !4
  %10 = icmp ne i32 %9, 0
  br i1 %10, label %13, label %11

11:                                               ; preds = %8
  %12 = load ptr, ptr %3, align 8, !tbaa !8
  store ptr %12, ptr %2, align 8
  br label %16

13:                                               ; preds = %8
  %14 = load ptr, ptr %3, align 8, !tbaa !8
  %15 = call ptr @dcgettext(ptr noundef null, ptr noundef %14, i32 noundef 5) #10
  store ptr %15, ptr %2, align 8
  br label %16

16:                                               ; preds = %13, %11, %7
  %17 = load ptr, ptr %2, align 8
  ret ptr %17
}

; Function Attrs: nounwind uwtable
define internal void @close_term_fd() #0 {
  %1 = load volatile i32, ptr @term_fd_needs_closing, align 4, !tbaa !4
  %2 = icmp ne i32 %1, 0
  br i1 %2, label %3, label %6

3:                                                ; preds = %0
  %4 = load i32, ptr @term_fd, align 4, !tbaa !4
  %5 = call i32 @close(i32 noundef %4)
  br label %6

6:                                                ; preds = %3, %0
  store volatile i32 0, ptr @term_fd_needs_closing, align 4, !tbaa !4
  store i32 -1, ptr @term_fd, align 4, !tbaa !4
  ret void
}

; Function Attrs: nounwind uwtable
define dso_local i32 @save_term(i32 noundef %0) #0 {
  %2 = alloca i32, align 4
  %3 = alloca i32, align 4
  %4 = alloca %struct.sigaction, align 8
  %5 = alloca i32, align 4
  store i32 %0, ptr %3, align 4, !tbaa !4
  call void @llvm.lifetime.start.p0(i64 152, ptr %4) #10
  %6 = load i32, ptr @term_fd, align 4, !tbaa !4
  %7 = icmp slt i32 %6, 0
  br i1 %7, label %8, label %17

8:                                                ; preds = %1
  %9 = load i32, ptr %3, align 4, !tbaa !4
  %10 = and i32 %9, 2
  %11 = icmp ne i32 %10, 0
  br i1 %11, label %12, label %13

12:                                               ; preds = %8
  br label %15

13:                                               ; preds = %8
  %14 = call i32 (ptr, i32, ...) @open64(ptr noundef @.str, i32 noundef 2)
  br label %15

15:                                               ; preds = %13, %12
  %16 = phi i32 [ 0, %12 ], [ %14, %13 ]
  store i32 %16, ptr @term_fd, align 4, !tbaa !4
  br label %17

17:                                               ; preds = %15, %1
  %18 = load i32, ptr @term_fd, align 4, !tbaa !4
  %19 = icmp slt i32 %18, 0
  br i1 %19, label %20, label %21

20:                                               ; preds = %17
  store i32 -1, ptr %2, align 4
  store i32 1, ptr %5, align 4
  br label %53

21:                                               ; preds = %17
  %22 = load i32, ptr %3, align 4, !tbaa !4
  %23 = and i32 %22, 2
  %24 = icmp ne i32 %23, 0
  %25 = xor i1 %24, true
  %26 = zext i1 %25 to i32
  store volatile i32 %26, ptr @term_fd_needs_closing, align 4, !tbaa !4
  %27 = load i32, ptr @term_fd, align 4, !tbaa !4
  %28 = call i32 @tcgetattr(i32 noundef %27, ptr noundef @old_term) #10
  %29 = icmp slt i32 %28, 0
  br i1 %29, label %30, label %31

30:                                               ; preds = %21
  call void @close_term_fd()
  store i32 -1, ptr %2, align 4
  store i32 1, ptr %5, align 4
  br label %53

31:                                               ; preds = %21
  call void @sigchain_push_common(ptr noundef @restore_term_on_signal)
  %32 = call i32 @sigaction(i32 noundef 20, ptr noundef null, ptr noundef %4) #10
  %33 = getelementptr inbounds nuw %struct.sigaction, ptr %4, i32 0, i32 0
  %34 = load ptr, ptr %33, align 8, !tbaa !11
  %35 = icmp eq ptr %34, inttoptr (i64 1 to ptr)
  br i1 %35, label %36, label %37

36:                                               ; preds = %31
  store i32 0, ptr %2, align 4
  store i32 1, ptr %5, align 4
  br label %53

37:                                               ; preds = %31
  %38 = call ptr @_(ptr noundef @.str.1)
  store ptr %38, ptr @background_resume_msg, align 8, !tbaa !8
  %39 = call ptr @_(ptr noundef @.str.2)
  store ptr %39, ptr @restore_error_msg, align 8, !tbaa !8
  %40 = getelementptr inbounds nuw %struct.sigaction, ptr %4, i32 0, i32 0
  store ptr @restore_terminal_on_suspend, ptr %40, align 8, !tbaa !11
  %41 = getelementptr inbounds nuw %struct.sigaction, ptr %4, i32 0, i32 2
  store i32 268435456, ptr %41, align 8, !tbaa !12
  %42 = getelementptr inbounds nuw %struct.sigaction, ptr %4, i32 0, i32 1
  %43 = call i32 @sigemptyset(ptr noundef %42) #10
  %44 = getelementptr inbounds nuw %struct.sigaction, ptr %4, i32 0, i32 1
  %45 = call i32 @sigaddset(ptr noundef %44, i32 noundef 20) #10
  %46 = getelementptr inbounds nuw %struct.sigaction, ptr %4, i32 0, i32 1
  %47 = call i32 @sigaddset(ptr noundef %46, i32 noundef 21) #10
  %48 = getelementptr inbounds nuw %struct.sigaction, ptr %4, i32 0, i32 1
  %49 = call i32 @sigaddset(ptr noundef %48, i32 noundef 22) #10
  %50 = call i32 @sigaction(i32 noundef 20, ptr noundef %4, ptr noundef null) #10
  %51 = call i32 @sigaction(i32 noundef 21, ptr noundef %4, ptr noundef null) #10
  %52 = call i32 @sigaction(i32 noundef 22, ptr noundef %4, ptr noundef null) #10
  store i32 0, ptr %2, align 4
  store i32 1, ptr %5, align 4
  br label %53

53:                                               ; preds = %37, %36, %30, %20
  call void @llvm.lifetime.end.p0(i64 152, ptr %4) #10
  %54 = load i32, ptr %2, align 4
  ret i32 %54
}