; Function Attrs: nounwind uwtable
define dso_local range(i32 -1, 1) i32 @save_term(i32 noundef %0) local_unnamed_addr #0 {
  %2 = alloca %struct.sigaction, align 8
  call void @llvm.lifetime.start.p0(i64 152, ptr nonnull %2) #13
  %3 = load i32, ptr @term_fd, align 4, !tbaa !4
  %4 = icmp slt i32 %3, 0
  br i1 %4, label %5, label %.thread

5:                                                ; preds = %1
  %6 = and i32 %0, 2
  %.not = icmp eq i32 %6, 0
  br i1 %.not, label %7, label %.thread7

.thread7:                                         ; preds = %5
  store i32 0, ptr @term_fd, align 4, !tbaa !4
  br label %.thread

7:                                                ; preds = %5
  %8 = tail call i32 (ptr, i32, ...) @open64(ptr noundef nonnull @.str, i32 noundef 2) #13
  store i32 %8, ptr @term_fd, align 4, !tbaa !4
  %9 = icmp slt i32 %8, 0
  br i1 %9, label %38, label %.thread

.thread:                                          ; preds = %1, %.thread7, %7
  %10 = phi i32 [ %8, %7 ], [ 0, %.thread7 ], [ %3, %1 ]
  %11 = lshr i32 %0, 1
  %.lobit = and i32 %11, 1
  %12 = xor i32 %.lobit, 1
  store volatile i32 %12, ptr @term_fd_needs_closing, align 4, !tbaa !4
  %13 = tail call i32 @tcgetattr(i32 noundef %10, ptr noundef nonnull @old_term) #13
  %14 = icmp slt i32 %13, 0
  br i1 %14, label %15, label %20

15:                                               ; preds = %.thread
  %16 = load volatile i32, ptr @term_fd_needs_closing, align 4, !tbaa !4
  %.not.i = icmp eq i32 %16, 0
  br i1 %.not.i, label %close_term_fd.exit, label %17

17:                                               ; preds = %15
  %18 = load i32, ptr @term_fd, align 4, !tbaa !4
  %19 = tail call i32 @close(i32 noundef %18) #13
  br label %close_term_fd.exit

close_term_fd.exit:                               ; preds = %15, %17
  store volatile i32 0, ptr @term_fd_needs_closing, align 4, !tbaa !4
  store i32 -1, ptr @term_fd, align 4, !tbaa !4
  br label %38

20:                                               ; preds = %.thread
  tail call void @sigchain_push_common(ptr noundef nonnull @restore_term_on_signal) #13
  %21 = call i32 @sigaction(i32 noundef 20, ptr noundef null, ptr noundef nonnull %2) #13
  %22 = load ptr, ptr %2, align 8, !tbaa !11
  %23 = icmp eq ptr %22, inttoptr (i64 1 to ptr)
  br i1 %23, label %38, label %24

24:                                               ; preds = %20
  %25 = load i32, ptr @git_gettext_enabled, align 4, !tbaa !4
  %.not4.i = icmp eq i32 %25, 0
  br i1 %.not4.i, label %_.exit.thread, label %_.exit

_.exit.thread:                                    ; preds = %24
  store ptr @.str.1, ptr @background_resume_msg, align 8, !tbaa !8
  br label %_.exit6

_.exit:                                           ; preds = %24
  %26 = call ptr @dcgettext(ptr noundef null, ptr noundef nonnull @.str.1, i32 noundef 5) #13
  %.pr = load i32, ptr @git_gettext_enabled, align 4, !tbaa !4
  store ptr %26, ptr @background_resume_msg, align 8, !tbaa !8
  %.not4.i4 = icmp eq i32 %.pr, 0
  br i1 %.not4.i4, label %_.exit6, label %27

27:                                               ; preds = %_.exit
  %28 = call ptr @dcgettext(ptr noundef null, ptr noundef nonnull @.str.2, i32 noundef 5) #13
  br label %_.exit6

_.exit6:                                          ; preds = %_.exit.thread, %_.exit, %27
  %.0.i5 = phi ptr [ %28, %27 ], [ @.str.2, %_.exit ], [ @.str.2, %_.exit.thread ]
  store ptr %.0.i5, ptr @restore_error_msg, align 8, !tbaa !8
  store ptr @restore_terminal_on_suspend, ptr %2, align 8, !tbaa !11
  %29 = getelementptr inbounds nuw i8, ptr %2, i64 136
  store i32 268435456, ptr %29, align 8, !tbaa !12
  %30 = getelementptr inbounds nuw i8, ptr %2, i64 8
  %31 = call i32 @sigemptyset(ptr noundef nonnull %30) #13
  %32 = call i32 @sigaddset(ptr noundef nonnull %30, i32 noundef 20) #13
  %33 = call i32 @sigaddset(ptr noundef nonnull %30, i32 noundef 21) #13
  %34 = call i32 @sigaddset(ptr noundef nonnull %30, i32 noundef 22) #13
  %35 = call i32 @sigaction(i32 noundef 20, ptr noundef nonnull %2, ptr noundef null) #13
  %36 = call i32 @sigaction(i32 noundef 21, ptr noundef nonnull %2, ptr noundef null) #13
  %37 = call i32 @sigaction(i32 noundef 22, ptr noundef nonnull %2, ptr noundef null) #13
  br label %38

38:                                               ; preds = %20, %7, %_.exit6, %close_term_fd.exit
  %.0 = phi i32 [ -1, %close_term_fd.exit ], [ 0, %_.exit6 ], [ -1, %7 ], [ 0, %20 ]
  call void @llvm.lifetime.end.p0(i64 152, ptr nonnull %2) #13
  ret i32 %.0
}